target datalayout = "e-m:e-p270:32:32-p271:32:32-p272:64:64-i64:64-i128:128-f80:128-n8:16:32:64-S128"
target triple = "x86_64-pc-linux-gnu"

@.str.3 = private unnamed_addr constant [1 x i8] zeroinitializer, align 1
@.str.32 = private unnamed_addr constant [10 x i8] c"%lu day%s\00", align 1
@.str.33 = private unnamed_addr constant [2 x i8] c"s\00", align 1
@.str.34 = private unnamed_addr constant [13 x i8] c"%s%lu hour%s\00", align 1
@.str.35 = private unnamed_addr constant [3 x i8] c", \00", align 1
@.str.36 = private unnamed_addr constant [15 x i8] c"%s%lu minute%s\00", align 1
@.str.37 = private unnamed_addr constant [19 x i8] c"%s%lu.%09u seconds\00", align 1
@.str.38 = private unnamed_addr constant [19 x i8] c"%s%lu.%03u seconds\00", align 1
@.str.39 = private unnamed_addr constant [15 x i8] c"%s%lu second%s\00", align 1
@.str.40 = private unnamed_addr constant [18 x i8] c"%s%u nanosecond%s\00", align 1
@.str.41 = private unnamed_addr constant [23 x i8] c"%s%u.%03u microseconds\00", align 1
@.str.42 = private unnamed_addr constant [23 x i8] c"%s%u.%06u milliseconds\00", align 1
@.str.43 = private unnamed_addr constant [19 x i8] c"%s%u millisecond%s\00", align 1

; Function Attrs: null_pointer_is_valid sspstrong uwtable
define internal void @unsigned_time_secs_to_str_buf(i64 noundef %0, i32 noundef %1, i1 noundef zeroext %2, ptr noundef %3) #0 {
  %5 = alloca i64, align 8
  %6 = alloca i32, align 4
  %7 = alloca i8, align 1
  %8 = alloca ptr, align 8
  %9 = alloca i64, align 8
  %10 = alloca i64, align 8
  %11 = alloca i64, align 8
  %12 = alloca i8, align 1
  store i64 %0, ptr %5, align 8
  store i32 %1, ptr %6, align 4
  %13 = zext i1 %2 to i8
  store i8 %13, ptr %7, align 1
  store ptr %3, ptr %8, align 8
  call void @llvm.lifetime.start.p0(i64 8, ptr %9) #8
  call void @llvm.lifetime.start.p0(i64 8, ptr %10) #8
  call void @llvm.lifetime.start.p0(i64 8, ptr %11) #8
  call void @llvm.lifetime.start.p0(i64 1, ptr %12) #8
  store i8 0, ptr %12, align 1
  %14 = load i64, ptr %5, align 8
  %15 = urem i64 %14, 60
  store i64 %15, ptr %11, align 8
  %16 = load i64, ptr %5, align 8
  %17 = udiv i64 %16, 60
  store i64 %17, ptr %5, align 8
  %18 = load i64, ptr %5, align 8
  %19 = urem i64 %18, 60
  store i64 %19, ptr %10, align 8
  %20 = load i64, ptr %5, align 8
  %21 = udiv i64 %20, 60
  store i64 %21, ptr %5, align 8
  %22 = load i64, ptr %5, align 8
  %23 = urem i64 %22, 24
  store i64 %23, ptr %9, align 8
  %24 = load i64, ptr %5, align 8
  %25 = udiv i64 %24, 24
  store i64 %25, ptr %5, align 8
  %26 = load i64, ptr %5, align 8
  %27 = icmp ne i64 %26, 0
  br i1 %27, label %28, label %34

28:                                               ; preds = %4
  %29 = load ptr, ptr %8, align 8
  %30 = load i64, ptr %5, align 8
  %31 = load i64, ptr %5, align 8
  %32 = icmp ugt i64 %31, 1
  %33 = select i1 %32, ptr @.str.33, ptr @.str.3
  call void (ptr, ptr, ...) @wmem_strbuf_append_printf(ptr noundef %29, ptr noundef @.str.32, i64 noundef %30, ptr noundef %33)
  store i8 1, ptr %12, align 1
  br label %34

34:                                               ; preds = %28, %4
  %35 = load i64, ptr %9, align 8
  %36 = icmp ne i64 %35, 0
  br i1 %36, label %37, label %46

37:                                               ; preds = %34
  %38 = load ptr, ptr %8, align 8
  %39 = load i8, ptr %12, align 1, !range !6, !noundef !7
  %40 = trunc i8 %39 to i1
  %41 = select i1 %40, ptr @.str.35, ptr @.str.3
  %42 = load i64, ptr %9, align 8
  %43 = load i64, ptr %9, align 8
  %44 = icmp ugt i64 %43, 1
  %45 = select i1 %44, ptr @.str.33, ptr @.str.3
  call void (ptr, ptr, ...) @wmem_strbuf_append_printf(ptr noundef %38, ptr noundef @.str.34, ptr noundef %41, i64 noundef %42, ptr noundef %45)
  store i8 1, ptr %12, align 1
  br label %46

46:                                               ; preds = %37, %34
  %47 = load i64, ptr %10, align 8
  %48 = icmp ne i64 %47, 0
  br i1 %48, label %49, label %58

49:                                               ; preds = %46
  %50 = load ptr, ptr %8, align 8
  %51 = load i8, ptr %12, align 1, !range !6, !noundef !7
  %52 = trunc i8 %51 to i1
  %53 = select i1 %52, ptr @.str.35, ptr @.str.3
  %54 = load i64, ptr %10, align 8
  %55 = load i64, ptr %10, align 8
  %56 = icmp ugt i64 %55, 1
  %57 = select i1 %56, ptr @.str.33, ptr @.str.3
  call void (ptr, ptr, ...) @wmem_strbuf_append_printf(ptr noundef %50, ptr noundef @.str.36, ptr noundef %53, i64 noundef %54, ptr noundef %57)
  store i8 1, ptr %12, align 1
  br label %58

58:                                               ; preds = %49, %46
  %59 = load i64, ptr %11, align 8
  %60 = icmp ne i64 %59, 0
  br i1 %60, label %61, label %92

61:                                               ; preds = %58
  %62 = load i32, ptr %6, align 4
  %63 = icmp ne i32 %62, 0
  br i1 %63, label %64, label %82

64:                                               ; preds = %61
  %65 = load i8, ptr %7, align 1, !range !6, !noundef !7
  %66 = trunc i8 %65 to i1
  br i1 %66, label %67, label %74

67:                                               ; preds = %64
  %68 = load ptr, ptr %8, align 8
  %69 = load i8, ptr %12, align 1, !range !6, !noundef !7
  %70 = trunc i8 %69 to i1
  %71 = select i1 %70, ptr @.str.35, ptr @.str.3
  %72 = load i64, ptr %11, align 8
  %73 = load i32, ptr %6, align 4
  call void (ptr, ptr, ...) @wmem_strbuf_append_printf(ptr noundef %68, ptr noundef @.str.37, ptr noundef %71, i64 noundef %72, i32 noundef %73)
  br label %81

74:                                               ; preds = %64
  %75 = load ptr, ptr %8, align 8
  %76 = load i8, ptr %12, align 1, !range !6, !noundef !7
  %77 = trunc i8 %76 to i1
  %78 = select i1 %77, ptr @.str.35, ptr @.str.3
  %79 = load i64, ptr %11, align 8
  %80 = load i32, ptr %6, align 4
  call void (ptr, ptr, ...) @wmem_strbuf_append_printf(ptr noundef %75, ptr noundef @.str.38, ptr noundef %78, i64 noundef %79, i32 noundef %80)
  br label %81

81:                                               ; preds = %74, %67
  br label %91

82:                                               ; preds = %61
  %83 = load ptr, ptr %8, align 8
  %84 = load i8, ptr %12, align 1, !range !6, !noundef !7
  %85 = trunc i8 %84 to i1
  %86 = select i1 %85, ptr @.str.35, ptr @.str.3
  %87 = load i64, ptr %11, align 8
  %88 = load i64, ptr %11, align 8
  %89 = icmp ugt i64 %88, 1
  %90 = select i1 %89, ptr @.str.33, ptr @.str.3
  call void (ptr, ptr, ...) @wmem_strbuf_append_printf(ptr noundef %83, ptr noundef @.str.39, ptr noundef %86, i64 noundef %87, ptr noundef %90)
  br label %91

91:                                               ; preds = %82, %81
  br label %144

92:                                               ; preds = %58
  %93 = load i32, ptr %6, align 4
  %94 = icmp ne i32 %93, 0
  br i1 %94, label %95, label %143

95:                                               ; preds = %92
  %96 = load i8, ptr %7, align 1, !range !6, !noundef !7
  %97 = trunc i8 %96 to i1
  br i1 %97, label %98, label %133

98:                                               ; preds = %95
  %99 = load i32, ptr %6, align 4
  %100 = icmp ult i32 %99, 1000
  br i1 %100, label %101, label %110

101:                                              ; preds = %98
  %102 = load ptr, ptr %8, align 8
  %103 = load i8, ptr %12, align 1, !range !6, !noundef !7
  %104 = trunc i8 %103 to i1
  %105 = select i1 %104, ptr @.str.35, ptr @.str.3
  %106 = load i32, ptr %6, align 4
  %107 = load i32, ptr %6, align 4
  %108 = icmp ugt i32 %107, 1
  %109 = select i1 %108, ptr @.str.33, ptr @.str.3
  call void (ptr, ptr, ...) @wmem_strbuf_append_printf(ptr noundef %102, ptr noundef @.str.40, ptr noundef %105, i32 noundef %106, ptr noundef %109)
  br label %132

110:                                              ; preds = %98
  %111 = load i32, ptr %6, align 4
  %112 = icmp ult i32 %111, 1000000
  br i1 %112, label %113, label %122

113:                                              ; preds = %110
  %114 = load ptr, ptr %8, align 8
  %115 = load i8, ptr %12, align 1, !range !6, !noundef !7
  %116 = trunc i8 %115 to i1
  %117 = select i1 %116, ptr @.str.35, ptr @.str.3
  %118 = load i32, ptr %6, align 4
  %119 = udiv i32 %118, 1000
  %120 = load i32, ptr %6, align 4
  %121 = urem i32 %120, 1000
  call void (ptr, ptr, ...) @wmem_strbuf_append_printf(ptr noundef %114, ptr noundef @.str.41, ptr noundef %117, i32 noundef %119, i32 noundef %121)
  br label %131

122:                                              ; preds = %110
  %123 = load ptr, ptr %8, align 8
  %124 = load i8, ptr %12, align 1, !range !6, !noundef !7
  %125 = trunc i8 %124 to i1
  %126 = select i1 %125, ptr @.str.35, ptr @.str.3
  %127 = load i32, ptr %6, align 4
  %128 = udiv i32 %127, 1000000
  %129 = load i32, ptr %6, align 4
  %130 = urem i32 %129, 1000000
  call void (ptr, ptr, ...) @wmem_strbuf_append_printf(ptr noundef %123, ptr noundef @.str.42, ptr noundef %126, i32 noundef %128, i32 noundef %130)
  br label %131

131:                                              ; preds = %122, %113
  br label %132

132:                                              ; preds = %131, %101
  br label %142

133:                                              ; preds = %95
  %134 = load ptr, ptr %8, align 8
  %135 = load i8, ptr %12, align 1, !range !6, !noundef !7
  %136 = trunc i8 %135 to i1
  %137 = select i1 %136, ptr @.str.35, ptr @.str.3
  %138 = load i32, ptr %6, align 4
  %139 = load i32, ptr %6, align 4
  %140 = icmp ugt i32 %139, 1
  %141 = select i1 %140, ptr @.str.33, ptr @.str.3
  call void (ptr, ptr, ...) @wmem_strbuf_append_printf(ptr noundef %134, ptr noundef @.str.43, ptr noundef %137, i32 noundef %138, ptr noundef %141)
  br label %142

142:                                              ; preds = %133, %132
  br label %143

143:                                              ; preds = %142, %92
  br label %144

144:                                              ; preds = %143, %91
  call void @llvm.lifetime.end.p0(i64 1, ptr %12) #8
  call void @llvm.lifetime.end.p0(i64 8, ptr %11) #8
  call void @llvm.lifetime.end.p0(i64 8, ptr %10) #8
  call void @llvm.lifetime.end.p0(i64 8, ptr %9) #8
  ret void
}