; Function Attrs: null_pointer_is_valid sspstrong uwtable
define internal fastcc void @unsigned_time_secs_to_str_buf(i64 noundef range(i64 -1, -9223372036854775808) %0, i32 noundef range(i32 -999, -2147483647) %1, i1 noundef zeroext %2, ptr noundef %3) unnamed_addr #0 {
  %5 = urem i64 %0, 60
  %6 = udiv i64 %0, 60
  %7 = urem i64 %6, 60
  %8 = udiv i64 %0, 3600
  %9 = urem i64 %8, 24
  %.not = icmp ult i64 %0, 86400
  br i1 %.not, label %14, label %10

10:                                               ; preds = %4
  %11 = udiv i64 %0, 86400
  %12 = icmp ugt i64 %0, 172799
  %13 = select i1 %12, ptr @.str.33, ptr @.str.3
  tail call void (ptr, ptr, ...) @wmem_strbuf_append_printf(ptr noundef %3, ptr noundef nonnull @.str.32, i64 noundef %11, ptr noundef nonnull %13)
  br label %14

14:                                               ; preds = %10, %4
  %.0 = phi i8 [ 1, %10 ], [ 0, %4 ]
  %.not60 = icmp eq i64 %9, 0
  br i1 %.not60, label %19, label %15

15:                                               ; preds = %14
  %16 = trunc nuw i8 %.0 to i1
  %17 = select i1 %16, ptr @.str.35, ptr @.str.3
  %.not61 = icmp eq i64 %9, 1
  %18 = select i1 %.not61, ptr @.str.3, ptr @.str.33
  tail call void (ptr, ptr, ...) @wmem_strbuf_append_printf(ptr noundef %3, ptr noundef nonnull @.str.34, ptr noundef nonnull %17, i64 noundef %9, ptr noundef nonnull %18)
  br label %19

19:                                               ; preds = %15, %14
  %.1 = phi i8 [ 1, %15 ], [ %.0, %14 ]
  %.not62 = icmp eq i64 %7, 0
  br i1 %.not62, label %24, label %20

20:                                               ; preds = %19
  %21 = trunc nuw i8 %.1 to i1
  %22 = select i1 %21, ptr @.str.35, ptr @.str.3
  %.not63 = icmp eq i64 %7, 1
  %23 = select i1 %.not63, ptr @.str.3, ptr @.str.33
  tail call void (ptr, ptr, ...) @wmem_strbuf_append_printf(ptr noundef %3, ptr noundef nonnull @.str.36, ptr noundef nonnull %22, i64 noundef %7, ptr noundef nonnull %23)
  br label %24

24:                                               ; preds = %20, %19
  %.2 = phi i8 [ 1, %20 ], [ %.1, %19 ]
  %.not64 = icmp eq i64 %5, 0
  %.not65 = icmp eq i32 %1, 0
  br i1 %.not64, label %33, label %25

25:                                               ; preds = %24
  %26 = trunc nuw i8 %.2 to i1
  %27 = select i1 %26, ptr @.str.35, ptr @.str.3
  br i1 %.not65, label %31, label %28

28:                                               ; preds = %25
  br i1 %2, label %29, label %30

29:                                               ; preds = %28
  tail call void (ptr, ptr, ...) @wmem_strbuf_append_printf(ptr noundef %3, ptr noundef nonnull @.str.37, ptr noundef nonnull %27, i64 noundef %5, i32 noundef %1)
  br label %55

30:                                               ; preds = %28
  tail call void (ptr, ptr, ...) @wmem_strbuf_append_printf(ptr noundef %3, ptr noundef nonnull @.str.38, ptr noundef nonnull %27, i64 noundef %5, i32 noundef %1)
  br label %55

31:                                               ; preds = %25
  %.not69 = icmp eq i64 %5, 1
  %32 = select i1 %.not69, ptr @.str.3, ptr @.str.33
  tail call void (ptr, ptr, ...) @wmem_strbuf_append_printf(ptr noundef %3, ptr noundef nonnull @.str.39, ptr noundef nonnull %27, i64 noundef %5, ptr noundef nonnull %32)
  br label %55

33:                                               ; preds = %24
  br i1 %.not65, label %55, label %34

34:                                               ; preds = %33
  br i1 %2, label %35, label %51

35:                                               ; preds = %34
  %36 = icmp ult i32 %1, 1000
  br i1 %36, label %37, label %41

37:                                               ; preds = %35
  %38 = trunc nuw i8 %.2 to i1
  %39 = select i1 %38, ptr @.str.35, ptr @.str.3
  %.not67 = icmp eq i32 %1, 1
  %40 = select i1 %.not67, ptr @.str.3, ptr @.str.33
  tail call void (ptr, ptr, ...) @wmem_strbuf_append_printf(ptr noundef %3, ptr noundef nonnull @.str.40, ptr noundef nonnull %39, i32 noundef %1, ptr noundef nonnull %40)
  br label %55

41:                                               ; preds = %35
  %42 = icmp ult i32 %1, 1000000
  %43 = trunc nuw i8 %.2 to i1
  %44 = select i1 %43, ptr @.str.35, ptr @.str.3
  br i1 %42, label %45, label %48

45:                                               ; preds = %41
  %46 = udiv i32 %1, 1000
  %47 = urem i32 %1, 1000
  tail call void (ptr, ptr, ...) @wmem_strbuf_append_printf(ptr noundef %3, ptr noundef nonnull @.str.41, ptr noundef nonnull %44, i32 noundef %46, i32 noundef %47)
  br label %55

48:                                               ; preds = %41
  %49 = udiv i32 %1, 1000000
  %50 = urem i32 %1, 1000000
  tail call void (ptr, ptr, ...) @wmem_strbuf_append_printf(ptr noundef %3, ptr noundef nonnull @.str.42, ptr noundef nonnull %44, i32 noundef %49, i32 noundef %50)
  br label %55

51:                                               ; preds = %34
  %52 = trunc nuw i8 %.2 to i1
  %53 = select i1 %52, ptr @.str.35, ptr @.str.3
  %.not66 = icmp eq i32 %1, 1
  %54 = select i1 %.not66, ptr @.str.3, ptr @.str.33
  tail call void (ptr, ptr, ...) @wmem_strbuf_append_printf(ptr noundef %3, ptr noundef nonnull @.str.43, ptr noundef nonnull %53, i32 noundef %1, ptr noundef nonnull %54)
  br label %55

55:                                               ; preds = %33, %37, %48, %45, %51, %31, %30, %29
  ret void
}